Certificate:
    Data:
        Version: 3 (0x2)
        Serial Number: 1 (0x1)
        Signature Algorithm: sha256WithRSAEncryption
        Issuer: C=RU, ST=MSK, L=MSK, O=Internet Widgits Pty Ltd, CN=TestCA
        Validity
            Not Before: Apr 23 17:33:10 2023 GMT
            Not After : Apr 22 17:33:10 2024 GMT
        Subject: C=RU, ST=MSK, O=Internet Widgits Pty Ltd, CN=TestCert
        Subject Public Key Info:
            Public Key Algorithm: rsaEncryption
                RSA Public-Key: (2048 bit)
                Modulus:
                    00:aa:64:75:05:95:d1:d4:0a:fe:ca:b3:a1:33:42:
                    85:1d:14:84:a3:f4:bb:a3:60:a8:99:25:e6:05:df:
                    2b:f2:e1:f0:e8:67:fc:fb:9f:8e:06:17:09:34:76:
                    14:d6:78:6c:e6:95:54:c6:a4:bf:88:22:f6:d0:84:
                    6a:bf:aa:b4:86:b0:20:15:ef:04:7e:3d:74:99:06:
                    21:12:82:f6:a8:66:0f:d3:3c:80:02:94:64:0c:44:
                    29:83:ef:3a:e9:9b:6b:41:40:b4:fa:cf:b2:c3:ba:
                    4c:8f:1e:46:e1:d8:0b:5f:88:59:47:f2:de:19:af:
                    d7:f6:55:d7:63:f8:3e:74:bd:f2:03:3b:f6:a0:86:
                    61:d7:75:f0:61:d6:67:b3:cb:1b:ae:e2:12:48:01:
                    a0:98:6d:16:c7:9b:a4:93:cb:24:24:75:c2:56:5d:
                    a3:fd:e4:e4:9b:dd:da:3e:82:e3:35:c3:40:6d:bf:
                    97:29:a8:b9:44:25:c6:d7:e0:b4:c0:53:08:d2:7b:
                    fe:2c:7a:f1:13:4d:2f:ba:3f:73:87:1b:f3:f8:ef:
                    83:4f:65:b4:26:cb:09:c2:7e:65:d6:27:70:c1:82:
                    ed:15:3b:fc:56:8a:e2:f9:4a:2d:83:0a:82:29:09:
                    88:43:e7:69:c8:c4:27:64:28:20:f9:ee:76:6c:19:
                    8e:d7
                Exponent: 65537 (0x10001)
        X509v3 extensions:
            X509v3 Basic Constraints: 
                CA:FALSE
            Netscape Comment: 
                OpenSSL Generated Certificate
            X509v3 Subject Key Identifier: 
                C3:B2:78:65:09:F1:F7:88:19:AF:D1:5D:34:43:98:2A:3E:21:52:F5
            X509v3 Authority Key Identifier: 
                keyid:BE:B2:96:24:04:73:5C:05:EA:ED:89:19:65:93:59:36:5E:7D:46:CD

    Signature Algorithm: sha256WithRSAEncryption
         61:f2:bd:94:fa:5f:c7:5b:bb:97:8d:5d:f0:ed:63:c5:00:9f:
         fe:3d:67:5a:93:88:4c:7d:1f:65:a1:de:1b:31:47:a7:01:0a:
         f7:a5:f0:d1:a2:2d:88:88:3d:a7:94:13:47:01:4d:7e:06:5c:
         c0:04:67:f7:00:de:e2:0b:01:4c:fb:55:8d:b7:81:9d:16:9a:
         b3:e6:86:ec:26:1d:72:bc:45:ad:7c:89:ff:ac:12:7f:9b:70:
         43:c9:e4:94:85:ec:57:13:ae:02:e5:54:ce:7d:28:14:5f:cf:
         3b:fd:99:f8:d5:0f:14:fe:5f:3c:5e:12:2c:bc:f9:f7:e9:61:
         1e:ab:a0:af:fe:7a:f6:5b:bb:88:6d:c1:28:b4:bf:31:1e:bb:
         c6:e6:3e:1d:ec:b0:31:38:c7:22:dd:da:e2:14:fc:eb:87:90:
         11:35:a2:78:f4:56:27:7e:5c:2d:0d:e6:95:e8:c8:eb:dc:81:
         e8:5f:61:d1:28:78:79:7f:86:20:80:9b:cd:2f:2e:19:61:11:
         fa:bd:ad:a3:fa:e0:2c:4d:f8:8d:cd:39:a4:79:33:d7:36:56:
         8c:bf:77:96:47:73:67:6a:d0:ed:12:19:63:b2:83:68:a9:d7:
         33:60:91:f9:4e:70:96:5d:22:ee:f7:98:26:78:1a:c1:94:2c:
         32:94:e7:8f:72:01:87:a7:70:fd:d8:4b:69:43:a8:30:06:36:
         d8:85:4d:cb:1f:4f:7b:4e:01:b7:11:50:6b:4a:64:7d:41:c6:
         ef:16:4d:1b:66:66:2d:ce:ff:c5:61:fe:b0:e6:b1:64:e1:bf:
         e6:d3:0a:ec:83:56:0f:09:bb:a1:60:3c:31:92:c4:b6:e0:2b:
         16:dd:46:e3:5e:9d:3b:51:77:78:f5:58:e2:7e:5b:48:0a:07:
         44:c9:98:be:9c:d2:47:24:3a:37:97:38:b6:94:03:12:e7:dd:
         a8:e5:48:8c:48:02:14:93:27:f0:ce:17:3f:52:44:58:6b:c8:
         fc:62:d2:91:e1:8b:e9:cc:24:51:99:69:25:0f:8f:ea:a6:53:
         90:ef:07:c1:7a:64:78:54:ff:74:ec:15:f1:cf:fd:48:8b:68:
         0b:32:b3:21:b0:3a:87:a5:d3:5e:19:49:19:52:ed:6d:61:38:
         fa:0b:30:5c:98:9d:11:52:6f:8f:a6:5f:6a:89:95:2d:41:5a:
         3d:79:18:16:c5:88:cc:cb:47:ad:db:74:2c:97:10:a2:83:91:
         e7:e1:25:40:ca:ec:5b:7c:0a:08:52:59:40:d0:32:a8:ad:cd:
         8a:f6:95:c0:98:d0:e2:8a:97:7a:78:19:12:22:18:a3:c8:36:
         2c:56:74:f3:c8:2c:bb:c3
-----BEGIN CERTIFICATE-----
MIIEpDCCAoygAwIBAgIBATANBgkqhkiG9w0BAQsFADBdMQswCQYDVQQGEwJSVTEM
MAoGA1UECAwDTVNLMQwwCgYDVQQHDANNU0sxITAfBgNVBAoMGEludGVybmV0IFdp
ZGdpdHMgUHR5IEx0ZDEPMA0GA1UEAwwGVGVzdENBMB4XDTIzMDQyMzE3MzMxMFoX
DTI0MDQyMjE3MzMxMFowUTELMAkGA1UEBhMCUlUxDDAKBgNVBAgMA01TSzEhMB8G
A1UECgwYSW50ZXJuZXQgV2lkZ2l0cyBQdHkgTHRkMREwDwYDVQQDDAhUZXN0Q2Vy
dDCCASIwDQYJKoZIhvcNAQEBBQADggEPADCCAQoCggEBAKpkdQWV0dQK/sqzoTNC
hR0UhKP0u6NgqJkl5gXfK/Lh8Ohn/PufjgYXCTR2FNZ4bOaVVMakv4gi9tCEar+q
tIawIBXvBH49dJkGIRKC9qhmD9M8gAKUZAxEKYPvOumba0FAtPrPssO6TI8eRuHY
C1+IWUfy3hmv1/ZV12P4PnS98gM79qCGYdd18GHWZ7PLG67iEkgBoJhtFsebpJPL
JCR1wlZdo/3k5Jvd2j6C4zXDQG2/lymouUQlxtfgtMBTCNJ7/ix68RNNL7o/c4cb
8/jvg09ltCbLCcJ+ZdYncMGC7RU7/FaK4vlKLYMKgikJiEPnacjEJ2QoIPnudmwZ
jtcCAwEAAaN7MHkwCQYDVR0TBAIwADAsBglghkgBhvhCAQ0EHxYdT3BlblNTTCBH
ZW5lcmF0ZWQgQ2VydGlmaWNhdGUwHQYDVR0OBBYEFMOyeGUJ8feIGa/RXTRDmCo+
IVL1MB8GA1UdIwQYMBaAFL6yliQEc1wF6u2JGWWTWTZefUbNMA0GCSqGSIb3DQEB
CwUAA4ICAQBh8r2U+l/HW7uXjV3w7WPFAJ/+PWdak4hMfR9lod4bMUenAQr3pfDR
oi2IiD2nlBNHAU1+BlzABGf3AN7iCwFM+1WNt4GdFpqz5obsJh1yvEWtfIn/rBJ/
m3BDyeSUhexXE64C5VTOfSgUX887/Zn41Q8U/l88XhIsvPn36WEeq6Cv/nr2W7uI
bcEotL8xHrvG5j4d7LAxOMci3driFPzrh5ARNaJ49FYnflwtDeaV6Mjr3IHoX2HR
KHh5f4YggJvNLy4ZYRH6va2j+uAsTfiNzTmkeTPXNlaMv3eWR3NnatDtEhljsoNo
qdczYJH5TnCWXSLu95gmeBrBlCwylOePcgGHp3D92EtpQ6gwBjbYhU3LH097TgG3
EVBrSmR9QcbvFk0bZmYtzv/FYf6w5rFk4b/m0wrsg1YPCbuhYDwxksS24CsW3Ubj
Xp07UXd49VjifltICgdEyZi+nNJHJDo3lzi2lAMS592o5UiMSAIUkyfwzhc/UkRY
a8j8YtKR4YvpzCRRmWklD4/qplOQ7wfBemR4VP907BXxz/1Ii2gLMrMhsDqHpdNe
GUkZUu1tYTj6CzBcmJ0RUm+Ppl9qiZUtQVo9eRgWxYjMy0et23QslxCig5Hn4SVA
yuxbfAoIUllA0DKorc2K9pXAmNDiipd6eBkSIhijyDYsVnTzyCy7ww==
-----END CERTIFICATE-----
